; Function Attrs: mustprogress uwtable
define noundef zeroext i1 @_ZNK7testing8internal15ExpectationBase28AllPrerequisitesAreSatisfiedEv(ptr noundef nonnull readonly align 8 dereferenceable(232) %this) local_unnamed_addr #3 align 2 {
entry:
  tail call void @_ZNK7testing8internal9MutexBase10AssertHeldEv(ptr noundef nonnull align 8 dereferenceable(56) @_ZN7testing8internal13g_gmock_mutexE)
  %_M_left.i.i.i = getelementptr inbounds i8, ptr %this, i64 104
  %0 = load ptr, ptr %_M_left.i.i.i, align 8
  %add.ptr.i.i.i = getelementptr inbounds i8, ptr %this, i64 88
  %cmp.i.not5 = icmp eq ptr %0, %add.ptr.i.i.i
  br i1 %cmp.i.not5, label %return, label %for.body

for.body:                                         ; preds = %entry, %for.inc
  %it.sroa.0.06 = phi ptr [ %call.i, %for.inc ], [ %0, %entry ]
  %_M_storage.i.i = getelementptr inbounds i8, ptr %it.sroa.0.06, i64 32
  %1 = load ptr, ptr %_M_storage.i.i, align 8
  tail call void @_ZNK7testing8internal9MutexBase10AssertHeldEv(ptr noundef nonnull align 8 dereferenceable(56) @_ZN7testing8internal13g_gmock_mutexE)
  %cardinality_.i.i = getelementptr inbounds i8, ptr %1, i64 64
  %call_count_.i = getelementptr inbounds i8, ptr %1, i64 128
  %2 = load i32, ptr %call_count_.i, align 8
  %3 = load ptr, ptr %cardinality_.i.i, align 8
  %vtable.i.i = load ptr, ptr %3, align 8
  %vfn.i.i = getelementptr inbounds i8, ptr %vtable.i.i, i64 32
  %4 = load ptr, ptr %vfn.i.i, align 8
  %call2.i.i = tail call noundef zeroext i1 %4(ptr noundef nonnull align 8 dereferenceable(8) %3, i32 noundef %2)
  br i1 %call2.i.i, label %lor.lhs.false, label %return

lor.lhs.false:                                    ; preds = %for.body
  %5 = load ptr, ptr %_M_storage.i.i, align 8
  %call13 = tail call noundef zeroext i1 @_ZNK7testing8internal15ExpectationBase28AllPrerequisitesAreSatisfiedEv(ptr noundef nonnull align 8 dereferenceable(232) %5)
  br i1 %call13, label %for.inc, label %return

for.inc:                                          ; preds = %lor.lhs.false
  %call.i = tail call noundef ptr @_ZSt18_Rb_tree_incrementPKSt18_Rb_tree_node_base(ptr noundef nonnull %it.sroa.0.06) #29
  %cmp.i.not = icmp eq ptr %call.i, %add.ptr.i.i.i
  br i1 %cmp.i.not, label %return, label %for.body, !llvm.loop !63

return:                                           ; preds = %lor.lhs.false, %for.body, %for.inc, %entry
  %cmp.i.not.lcssa = phi i1 [ true, %entry ], [ true, %for.inc ], [ false, %for.body ], [ false, %lor.lhs.false ]
  ret i1 %cmp.i.not.lcssa
}